target datalayout = "e-m:e-p270:32:32-p271:32:32-p272:64:64-i64:64-i128:128-f80:128-n8:16:32:64-S128"
target triple = "x86_64-unknown-linux-gnu"

%"class.smt::theory_datatype" = type { %"class.smt::theory.base", %"class.datatype::util", %class.array_util, %class.seq_util, %class.ptr_vector.36, %class.union_find, %class.trail_stack, ptr, %"struct.smt::theory_datatype::stats", %class.ptr_vector, %class.ptr_vector, %class.svector.40, %class.obj_map.42, %class.svector.47, %class.svector.49, %class.ptr_vector, %class.ptr_vector }
%"class.smt::theory.base" = type <{ ptr, i32, [4 x i8], ptr, ptr, %class.ptr_vector, %class.svector, i32, i8 }>
%class.svector = type { %class.vector.0 }
%class.vector.0 = type { ptr }
%"class.datatype::util" = type { ptr, i32, ptr, %class.obj_map, %class.obj_map.1, %class.obj_map.6, %class.obj_map.11, %class.obj_map.11, %class.obj_map.11, %class.obj_map.16, %class.obj_map.16, %class.obj_map.16, %class.ref_vector, %class.ref_vector_core.23, %class.ptr_vector.26, i32, %class.ptr_vector.28 }
%class.obj_map = type { %class.core_hashtable }
%class.core_hashtable = type <{ ptr, i32, i32, i32, [4 x i8] }>
%class.obj_map.1 = type { %class.core_hashtable.2 }
%class.core_hashtable.2 = type <{ ptr, i32, i32, i32, [4 x i8] }>
%class.obj_map.6 = type { %class.core_hashtable.7 }
%class.core_hashtable.7 = type <{ ptr, i32, i32, i32, [4 x i8] }>
%class.obj_map.11 = type { %class.core_hashtable.12 }
%class.core_hashtable.12 = type <{ ptr, i32, i32, i32, [4 x i8] }>
%class.obj_map.16 = type { %class.core_hashtable.17 }
%class.core_hashtable.17 = type <{ ptr, i32, i32, i32, [4 x i8] }>
%class.ref_vector = type { %class.ref_vector_core }
%class.ref_vector_core = type { %class.ref_manager_wrapper, %class.ptr_vector.21 }
%class.ref_manager_wrapper = type { ptr }
%class.ptr_vector.21 = type { %class.vector.22 }
%class.vector.22 = type { ptr }
%class.ref_vector_core.23 = type { %class.ptr_vector.24 }
%class.ptr_vector.24 = type { %class.vector.25 }
%class.vector.25 = type { ptr }
%class.ptr_vector.26 = type { %class.vector.27 }
%class.vector.27 = type { ptr }
%class.ptr_vector.28 = type { %class.vector.29 }
%class.vector.29 = type { ptr }
%class.array_util = type { %class.array_recognizers, ptr }
%class.array_recognizers = type { i32 }
%class.seq_util = type { ptr, ptr, ptr, i32, [4 x i8], %"class.seq_util::str", %"class.seq_util::rex" }
%"class.seq_util::str" = type <{ ptr, ptr, i32, [4 x i8] }>
%"class.seq_util::rex" = type { ptr, ptr, i32, %class.vector.30, %class.ref_vector.31, %"struct.seq_util::rex::info", %"struct.seq_util::rex::info" }
%class.vector.30 = type { ptr }
%class.ref_vector.31 = type { %class.ref_vector_core.32 }
%class.ref_vector_core.32 = type { %class.ref_manager_wrapper.33, %class.ptr_vector.34 }
%class.ref_manager_wrapper.33 = type { ptr }
%class.ptr_vector.34 = type { %class.vector.35 }
%class.vector.35 = type { ptr }
%"struct.seq_util::rex::info" = type { i32, i8, i32, i32 }
%class.ptr_vector.36 = type { %class.vector.37 }
%class.vector.37 = type { ptr }
%class.union_find = type { ptr, ptr, %class.svector, %class.svector, %class.svector, %"class.union_find<smt::theory_datatype>::mk_var_trail" }
%"class.union_find<smt::theory_datatype>::mk_var_trail" = type { %class.trail, ptr }
%class.trail = type { ptr }
%class.trail_stack = type { %class.ptr_vector.38, %class.svector, %class.region }
%class.ptr_vector.38 = type { %class.vector.39 }
%class.vector.39 = type { ptr }
%class.region = type { ptr, ptr, ptr, ptr, ptr }
%"struct.smt::theory_datatype::stats" = type { i32, i32, i32, i32, i32 }
%class.svector.40 = type { %class.vector.41 }
%class.vector.41 = type { ptr }
%class.obj_map.42 = type { %class.core_hashtable.43 }
%class.core_hashtable.43 = type <{ ptr, i32, i32, i32, [4 x i8] }>
%class.svector.47 = type { %class.vector.48 }
%class.vector.48 = type { ptr }
%class.svector.49 = type { %class.vector.50 }
%class.vector.50 = type { ptr }
%class.ptr_vector = type { %class.vector }
%class.vector = type { ptr }

@.str.12 = private unnamed_addr constant [22 x i8] c"datatype occurs check\00", align 1
@.str.13 = private unnamed_addr constant [16 x i8] c"datatype splits\00", align 1
@.str.14 = private unnamed_addr constant [24 x i8] c"datatype constructor ax\00", align 1
@.str.15 = private unnamed_addr constant [21 x i8] c"datatype accessor ax\00", align 1
@.str.16 = private unnamed_addr constant [19 x i8] c"datatype update ax\00", align 1

; Function Attrs: mustprogress uwtable
define hidden void @_ZNK3smt15theory_datatype18collect_statisticsER10statistics(ptr noundef nonnull align 8 dereferenceable(728) %this, ptr noundef nonnull align 8 dereferenceable(16) %st) unnamed_addr #5 align 2 {
entry:
  %this.addr = alloca ptr, align 8
  %st.addr = alloca ptr, align 8
  store ptr %this, ptr %this.addr, align 8
  store ptr %st, ptr %st.addr, align 8
  %this1 = load ptr, ptr %this.addr, align 8
  %0 = load ptr, ptr %st.addr, align 8
  %m_stats = getelementptr inbounds %"class.smt::theory_datatype", ptr %this1, i32 0, i32 8
  %m_occurs_check = getelementptr inbounds %"struct.smt::theory_datatype::stats", ptr %m_stats, i32 0, i32 0
  %1 = load i32, ptr %m_occurs_check, align 8
  call void @_ZN10statistics6updateEPKcj(ptr noundef nonnull align 8 dereferenceable(16) %0, ptr noundef @.str.12, i32 noundef %1)
  %2 = load ptr, ptr %st.addr, align 8
  %m_stats2 = getelementptr inbounds %"class.smt::theory_datatype", ptr %this1, i32 0, i32 8
  %m_splits = getelementptr inbounds %"struct.smt::theory_datatype::stats", ptr %m_stats2, i32 0, i32 1
  %3 = load i32, ptr %m_splits, align 4
  call void @_ZN10statistics6updateEPKcj(ptr noundef nonnull align 8 dereferenceable(16) %2, ptr noundef @.str.13, i32 noundef %3)
  %4 = load ptr, ptr %st.addr, align 8
  %m_stats3 = getelementptr inbounds %"class.smt::theory_datatype", ptr %this1, i32 0, i32 8
  %m_assert_cnstr = getelementptr inbounds %"struct.smt::theory_datatype::stats", ptr %m_stats3, i32 0, i32 2
  %5 = load i32, ptr %m_assert_cnstr, align 8
  call void @_ZN10statistics6updateEPKcj(ptr noundef nonnull align 8 dereferenceable(16) %4, ptr noundef @.str.14, i32 noundef %5)
  %6 = load ptr, ptr %st.addr, align 8
  %m_stats4 = getelementptr inbounds %"class.smt::theory_datatype", ptr %this1, i32 0, i32 8
  %m_assert_accessor = getelementptr inbounds %"struct.smt::theory_datatype::stats", ptr %m_stats4, i32 0, i32 3
  %7 = load i32, ptr %m_assert_accessor, align 4
  call void @_ZN10statistics6updateEPKcj(ptr noundef nonnull align 8 dereferenceable(16) %6, ptr noundef @.str.15, i32 noundef %7)
  %8 = load ptr, ptr %st.addr, align 8
  %m_stats5 = getelementptr inbounds %"class.smt::theory_datatype", ptr %this1, i32 0, i32 8
  %m_assert_update_field = getelementptr inbounds %"struct.smt::theory_datatype::stats", ptr %m_stats5, i32 0, i32 4
  %9 = load i32, ptr %m_assert_update_field, align 8
  call void @_ZN10statistics6updateEPKcj(ptr noundef nonnull align 8 dereferenceable(16) %8, ptr noundef @.str.16, i32 noundef %9)
  ret void
}