; Function Attrs: mustprogress uwtable
define hidden void @_ZNK3smt15theory_datatype18collect_statisticsER10statistics(ptr nocapture noundef nonnull readonly align 8 dereferenceable(728) %this, ptr noundef nonnull align 8 dereferenceable(16) %st) unnamed_addr #3 align 2 {
entry:
  %m_stats = getelementptr inbounds i8, ptr %this, i64 624
  %0 = load i32, ptr %m_stats, align 8
  tail call void @_ZN10statistics6updateEPKcj(ptr noundef nonnull align 8 dereferenceable(16) %st, ptr noundef nonnull @.str.12, i32 noundef %0)
  %m_splits = getelementptr inbounds i8, ptr %this, i64 628
  %1 = load i32, ptr %m_splits, align 4
  tail call void @_ZN10statistics6updateEPKcj(ptr noundef nonnull align 8 dereferenceable(16) %st, ptr noundef nonnull @.str.13, i32 noundef %1)
  %m_assert_cnstr = getelementptr inbounds i8, ptr %this, i64 632
  %2 = load i32, ptr %m_assert_cnstr, align 8
  tail call void @_ZN10statistics6updateEPKcj(ptr noundef nonnull align 8 dereferenceable(16) %st, ptr noundef nonnull @.str.14, i32 noundef %2)
  %m_assert_accessor = getelementptr inbounds i8, ptr %this, i64 636
  %3 = load i32, ptr %m_assert_accessor, align 4
  tail call void @_ZN10statistics6updateEPKcj(ptr noundef nonnull align 8 dereferenceable(16) %st, ptr noundef nonnull @.str.15, i32 noundef %3)
  %m_assert_update_field = getelementptr inbounds i8, ptr %this, i64 640
  %4 = load i32, ptr %m_assert_update_field, align 8
  tail call void @_ZN10statistics6updateEPKcj(ptr noundef nonnull align 8 dereferenceable(16) %st, ptr noundef nonnull @.str.16, i32 noundef %4)
  ret void
}